target datalayout = "e-m:e-p270:32:32-p271:32:32-p272:64:64-i64:64-i128:128-f80:128-n8:16:32:64-S128"
target triple = "x86_64-pc-linux-gnu"

%struct.prov_cipher_fake_ctx_st = type { [32 x i8], [16 x i8] }
%struct.ossl_param_st = type { ptr, i32, ptr, i64, i64 }

@.str = private unnamed_addr constant [34 x i8] c"../openssl/test/fake_cipherprov.c\00", align 1
@.str.13 = private unnamed_addr constant [9 x i8] c"key_name\00", align 1
@.str.17 = private unnamed_addr constant [51 x i8] c"ctx = OPENSSL_zalloc(sizeof(PROV_CIPHER_FAKE_CTX))\00", align 1
@__func__.ctx_from_key_params = private unnamed_addr constant [20 x i8] c"ctx_from_key_params\00", align 1
@.str.18 = private unnamed_addr constant [10 x i8] c"raw-bytes\00", align 1

; Function Attrs: nounwind uwtable
define internal i32 @ctx_from_key_params(ptr noundef %0, ptr noundef %1) #0 {
  %3 = alloca i32, align 4
  %4 = alloca ptr, align 8
  %5 = alloca ptr, align 8
  %6 = alloca ptr, align 8
  %7 = alloca [32 x i8], align 16
  %8 = alloca ptr, align 8
  %9 = alloca i32, align 4
  %10 = alloca i64, align 8
  store ptr %0, ptr %4, align 8, !tbaa !28
  store ptr %1, ptr %5, align 8, !tbaa !33
  call void @llvm.lifetime.start.p0(i64 8, ptr %6) #6
  call void @llvm.lifetime.start.p0(i64 32, ptr %7) #6
  call void @llvm.lifetime.start.p0(i64 8, ptr %8) #6
  %11 = getelementptr inbounds [32 x i8], ptr %7, i64 0, i64 0
  store ptr %11, ptr %8, align 8, !tbaa !22
  %12 = getelementptr inbounds [32 x i8], ptr %7, i64 0, i64 0
  call void @llvm.memset.p0.i64(ptr align 16 %12, i8 0, i64 32, i1 false)
  %13 = load ptr, ptr %5, align 8, !tbaa !33
  %14 = call ptr @OSSL_PARAM_locate_const(ptr noundef %13, ptr noundef @.str.13)
  store ptr %14, ptr %6, align 8, !tbaa !33
  %15 = load ptr, ptr %6, align 8, !tbaa !33
  %16 = icmp ne ptr %15, null
  br i1 %16, label %17, label %27

17:                                               ; preds = %2
  %18 = load ptr, ptr %6, align 8, !tbaa !33
  %19 = call i32 @OSSL_PARAM_get_utf8_string(ptr noundef %18, ptr noundef %8, i64 noundef 32)
  %20 = icmp ne i32 %19, 0
  br i1 %20, label %22, label %21

21:                                               ; preds = %17
  call void @ERR_new()
  call void @ERR_set_debug(ptr noundef @.str, i32 noundef 40, ptr noundef @__func__.ctx_from_key_params)
  call void (i32, i32, ptr, ...) @ERR_set_error(i32 noundef 57, i32 noundef 104, ptr noundef null)
  store i32 0, ptr %3, align 4
  store i32 1, ptr %9, align 4
  br label %48

22:                                               ; preds = %17
  %23 = load ptr, ptr %4, align 8, !tbaa !28
  %24 = getelementptr inbounds nuw %struct.prov_cipher_fake_ctx_st, ptr %23, i32 0, i32 0
  %25 = getelementptr inbounds [32 x i8], ptr %24, i64 0, i64 0
  %26 = getelementptr inbounds [32 x i8], ptr %7, i64 0, i64 0
  call void @llvm.memcpy.p0.p0.i64(ptr align 1 %25, ptr align 16 %26, i64 32, i1 false)
  br label %27

27:                                               ; preds = %22, %2
  %28 = load ptr, ptr %5, align 8, !tbaa !33
  %29 = call ptr @OSSL_PARAM_locate_const(ptr noundef %28, ptr noundef @.str.18)
  store ptr %29, ptr %6, align 8, !tbaa !33
  %30 = load ptr, ptr %6, align 8, !tbaa !33
  %31 = icmp ne ptr %30, null
  br i1 %31, label %32, label %47

32:                                               ; preds = %27
  call void @llvm.lifetime.start.p0(i64 8, ptr %10) #6
  %33 = load ptr, ptr %6, align 8, !tbaa !33
  %34 = getelementptr inbounds nuw %struct.ossl_param_st, ptr %33, i32 0, i32 3
  %35 = load i64, ptr %34, align 8, !tbaa !36
  store i64 %35, ptr %10, align 8, !tbaa !26
  %36 = load i64, ptr %10, align 8, !tbaa !26
  %37 = icmp ugt i64 %36, 16
  br i1 %37, label %38, label %39

38:                                               ; preds = %32
  store i64 16, ptr %10, align 8, !tbaa !26
  br label %39

39:                                               ; preds = %38, %32
  %40 = load ptr, ptr %4, align 8, !tbaa !28
  %41 = getelementptr inbounds nuw %struct.prov_cipher_fake_ctx_st, ptr %40, i32 0, i32 1
  %42 = getelementptr inbounds [16 x i8], ptr %41, i64 0, i64 0
  %43 = load ptr, ptr %6, align 8, !tbaa !33
  %44 = getelementptr inbounds nuw %struct.ossl_param_st, ptr %43, i32 0, i32 2
  %45 = load ptr, ptr %44, align 8, !tbaa !38
  %46 = load i64, ptr %10, align 8, !tbaa !26
  call void @llvm.memcpy.p0.p0.i64(ptr align 1 %42, ptr align 1 %45, i64 %46, i1 false)
  call void @llvm.lifetime.end.p0(i64 8, ptr %10) #6
  br label %47

47:                                               ; preds = %39, %27
  store i32 1, ptr %3, align 4
  store i32 1, ptr %9, align 4
  br label %48

48:                                               ; preds = %47, %21
  call void @llvm.lifetime.end.p0(i64 8, ptr %8) #6
  call void @llvm.lifetime.end.p0(i64 32, ptr %7) #6
  call void @llvm.lifetime.end.p0(i64 8, ptr %6) #6
  %49 = load i32, ptr %3, align 4
  ret i32 %49
}

; Function Attrs: nounwind uwtable
define internal ptr @fake_skeymgmt_import(ptr noundef %0, i32 noundef %1, ptr noundef %2) #0 {
  %4 = alloca ptr, align 8
  %5 = alloca ptr, align 8
  %6 = alloca i32, align 4
  %7 = alloca ptr, align 8
  %8 = alloca ptr, align 8
  %9 = alloca i32, align 4
  store ptr %0, ptr %5, align 8, !tbaa !17
  store i32 %1, ptr %6, align 4, !tbaa !18
  store ptr %2, ptr %7, align 8, !tbaa !33
  call void @llvm.lifetime.start.p0(i64 8, ptr %8) #6
  store ptr null, ptr %8, align 8, !tbaa !28
  %10 = call noalias ptr @CRYPTO_zalloc(i64 noundef 48, ptr noundef @.str, i32 noundef 68)
  store ptr %10, ptr %8, align 8, !tbaa !28
  %11 = call i32 @test_ptr(ptr noundef @.str, i32 noundef 68, ptr noundef @.str.17, ptr noundef %10)
  %12 = icmp ne i32 %11, 0
  br i1 %12, label %14, label %13

13:                                               ; preds = %3
  store ptr null, ptr %4, align 8
  store i32 1, ptr %9, align 4
  br label %23

14:                                               ; preds = %3
  %15 = load ptr, ptr %8, align 8, !tbaa !28
  %16 = load ptr, ptr %7, align 8, !tbaa !33
  %17 = call i32 @ctx_from_key_params(ptr noundef %15, ptr noundef %16)
  %18 = icmp ne i32 %17, 1
  br i1 %18, label %19, label %21

19:                                               ; preds = %14
  %20 = load ptr, ptr %8, align 8, !tbaa !28
  call void @CRYPTO_free(ptr noundef %20, ptr noundef @.str, i32 noundef 72)
  store ptr null, ptr %4, align 8
  store i32 1, ptr %9, align 4
  br label %23

21:                                               ; preds = %14
  %22 = load ptr, ptr %8, align 8, !tbaa !28
  store ptr %22, ptr %4, align 8
  store i32 1, ptr %9, align 4
  br label %23

23:                                               ; preds = %21, %19, %13
  call void @llvm.lifetime.end.p0(i64 8, ptr %8) #6
  %24 = load ptr, ptr %4, align 8
  ret ptr %24
}