; Function Attrs: nounwind uwtable
define internal noundef ptr @fake_skeymgmt_import(ptr readnone captures(none) %0, i32 %1, ptr noundef %2) #0 {
  %4 = alloca [32 x i8], align 16
  %5 = alloca ptr, align 8
  %6 = tail call noalias ptr @CRYPTO_zalloc(i64 noundef 48, ptr noundef nonnull @.str, i32 noundef 68) #11
  %7 = tail call i32 @test_ptr(ptr noundef nonnull @.str, i32 noundef 68, ptr noundef nonnull @.str.17, ptr noundef %6) #11
  %.not = icmp eq i32 %7, 0
  br i1 %.not, label %22, label %8

8:                                                ; preds = %3
  call void @llvm.lifetime.start.p0(i64 32, ptr nonnull %4) #11
  call void @llvm.lifetime.start.p0(i64 8, ptr nonnull %5) #11
  store ptr %4, ptr %5, align 8, !tbaa !17
  call void @llvm.memset.p0.i64(ptr noundef nonnull align 16 dereferenceable(32) %4, i8 0, i64 32, i1 false)
  %9 = call ptr @OSSL_PARAM_locate_const(ptr noundef %2, ptr noundef nonnull @.str.13) #11
  %.not.i = icmp eq ptr %9, null
  br i1 %.not.i, label %13, label %10

10:                                               ; preds = %8
  %11 = call i32 @OSSL_PARAM_get_utf8_string(ptr noundef nonnull %9, ptr noundef nonnull %5, i64 noundef 32) #11
  %.not13.i = icmp eq i32 %11, 0
  br i1 %.not13.i, label %21, label %12

12:                                               ; preds = %10
  call void @llvm.memcpy.p0.p0.i64(ptr noundef nonnull align 1 dereferenceable(32) %6, ptr noundef nonnull align 16 dereferenceable(32) %4, i64 32, i1 false)
  br label %13

13:                                               ; preds = %12, %8
  %14 = call ptr @OSSL_PARAM_locate_const(ptr noundef %2, ptr noundef nonnull @.str.18) #11
  %.not14.i = icmp eq ptr %14, null
  br i1 %.not14.i, label %ctx_from_key_params.exit.thread, label %15

15:                                               ; preds = %13
  %16 = getelementptr inbounds nuw i8, ptr %14, i64 24
  %17 = load i64, ptr %16, align 8, !tbaa !19
  %spec.store.select.i = call i64 @llvm.umin.i64(i64 %17, i64 16)
  %18 = getelementptr inbounds nuw i8, ptr %6, i64 32
  %19 = getelementptr inbounds nuw i8, ptr %14, i64 16
  %20 = load ptr, ptr %19, align 8, !tbaa !21
  call void @llvm.memcpy.p0.p0.i64(ptr nonnull align 1 %18, ptr align 1 %20, i64 %spec.store.select.i, i1 false)
  br label %ctx_from_key_params.exit.thread

ctx_from_key_params.exit.thread:                  ; preds = %15, %13
  call void @llvm.lifetime.end.p0(i64 8, ptr nonnull %5) #11
  call void @llvm.lifetime.end.p0(i64 32, ptr nonnull %4) #11
  br label %22

21:                                               ; preds = %10
  call void @ERR_new() #11
  call void @ERR_set_debug(ptr noundef nonnull @.str, i32 noundef 40, ptr noundef nonnull @__func__.ctx_from_key_params) #11
  call void (i32, i32, ptr, ...) @ERR_set_error(i32 noundef 57, i32 noundef 104, ptr noundef null) #11
  call void @llvm.lifetime.end.p0(i64 8, ptr nonnull %5) #11
  call void @llvm.lifetime.end.p0(i64 32, ptr nonnull %4) #11
  call void @CRYPTO_free(ptr noundef %6, ptr noundef nonnull @.str, i32 noundef 72) #11
  br label %22

22:                                               ; preds = %ctx_from_key_params.exit.thread, %3, %21
  %.0 = phi ptr [ null, %21 ], [ null, %3 ], [ %6, %ctx_from_key_params.exit.thread ]
  ret ptr %.0
}